Certificate:
    Data:
        Version: 3 (0x2)
        Serial Number:
            03:25:d5:a9:a5:d7:1e:a5:a8:d6:dc:54:0f:c5:69:95
        Signature Algorithm: sha256WithRSAEncryption
        Issuer: CN=Easy-RSA Mantids Example CA
        Validity
            Not Before: Aug  1 22:38:46 2022 GMT
            Not After : Mar  1 22:38:46 2032 GMT
        Subject: CN=mytlsclient
        Subject Public Key Info:
            Public Key Algorithm: rsaEncryption
                RSA Public-Key: (4096 bit)
                Modulus:
                    00:c7:1a:5e:64:a6:fa:93:7f:49:9e:33:6a:c3:8d:
                    c9:65:49:0d:27:1d:ba:b8:03:a0:bb:7a:c3:b4:de:
                    e3:92:c4:2c:c8:7e:40:45:b3:53:bf:5b:1c:0c:40:
                    13:32:a1:a3:26:41:52:1e:af:49:31:e4:85:4b:9a:
                    34:74:2f:83:02:10:1d:d8:89:8f:58:1a:15:b4:fb:
                    51:33:59:d8:c6:87:e3:57:a2:0b:03:55:b8:f1:d0:
                    53:43:f8:3e:c8:76:36:2e:41:df:92:57:4e:74:a7:
                    14:95:bc:74:54:1d:57:7c:14:ca:30:07:f9:b4:5e:
                    1f:95:d2:d1:df:4f:5c:f8:f3:25:b3:3f:cd:56:f5:
                    4c:84:ae:bd:20:55:d1:6c:ca:c0:8f:18:e8:5c:b0:
                    32:2e:88:ab:6b:cc:48:6a:f0:42:be:c9:d6:c1:5f:
                    ed:3a:af:22:e6:41:a9:bf:9d:e8:c3:a7:02:89:ce:
                    29:bd:3f:5b:49:4e:dc:d4:ef:67:0a:59:eb:13:dc:
                    fb:be:12:29:52:06:a0:c5:a1:b2:27:9e:89:be:16:
                    44:a5:ef:bf:6e:67:ee:b0:c1:9e:50:3e:27:18:22:
                    29:20:87:36:6d:ac:ca:d8:73:3c:0f:1a:16:50:09:
                    df:d9:82:a8:15:2a:d2:bf:ca:a9:ce:7e:4e:e0:8a:
                    24:db:05:23:3f:64:3c:9a:28:75:4b:75:28:da:b6:
                    af:db:0d:65:c7:c6:29:6c:1c:57:b7:3f:c7:99:ca:
                    c3:6a:8a:4f:e2:71:81:5e:8e:20:fe:75:25:48:23:
                    88:43:a1:89:45:72:2d:30:40:fc:05:5f:00:44:61:
                    1e:d6:8e:15:d1:91:f3:24:b1:5c:18:18:81:a4:88:
                    a7:f2:7b:76:be:23:af:db:64:b7:43:e3:27:14:0e:
                    30:ac:69:23:26:d2:b7:17:9f:4b:f6:0d:70:9a:c6:
                    45:f6:7a:1f:a3:79:d4:40:ed:4e:29:0b:eb:6d:04:
                    f8:c5:33:14:f1:fa:fc:ee:8e:89:76:89:cf:dd:d0:
                    73:c8:38:e6:f6:7e:a3:14:ec:fa:ea:40:fc:e3:a0:
                    12:df:06:ae:ea:4e:68:e1:8e:1e:cd:f1:f6:e1:86:
                    28:3d:ee:e0:6d:4e:ab:35:2d:d2:bb:ce:27:d6:09:
                    59:c1:b9:df:6e:81:96:f3:01:ae:06:e3:24:cb:d9:
                    45:7b:c3:6e:e4:97:b4:04:ef:fa:3f:cb:84:cb:6f:
                    a5:d8:d0:fc:22:99:fb:2b:09:60:0c:c4:aa:1c:cf:
                    ee:90:1e:00:b2:95:0b:64:16:ab:e5:e6:23:78:96:
                    b9:79:d8:d1:82:f1:3f:98:52:59:58:b5:a4:49:6e:
                    4b:35:07
                Exponent: 65537 (0x10001)
        X509v3 extensions:
            X509v3 Basic Constraints: 
                CA:FALSE
            X509v3 Subject Key Identifier: 
                0F:3A:74:F9:10:8C:3F:79:CE:9E:A1:8C:CB:75:4E:B8:88:2D:D8:C6
            X509v3 Authority Key Identifier: 
                keyid:71:5E:40:5E:45:AD:BF:D8:35:8B:7C:D9:32:2F:DD:35:EA:05:D8:35
                DirName:/CN=Easy-RSA Mantids Example CA
                serial:45:03:56:C1:6D:8E:18:15:73:6F:F8:A1:83:1C:55:4B:98:FB:18:1D

            X509v3 Extended Key Usage: 
                TLS Web Client Authentication
            X509v3 Key Usage: 
                Digital Signature
    Signature Algorithm: sha256WithRSAEncryption
         9b:99:c6:56:63:ff:b2:c2:00:97:68:1f:01:9d:27:68:5a:c8:
         2d:8b:f6:5d:57:68:76:37:9e:98:54:cb:06:5e:09:e4:b8:df:
         ba:8d:6b:e7:27:5e:df:c9:ee:70:21:a0:3b:d8:e4:63:76:a4:
         78:60:23:4a:a1:04:a6:53:52:22:4f:3b:55:5d:cc:1e:3c:24:
         47:28:fa:f3:0d:89:85:16:bd:33:b4:35:92:a4:67:8e:40:8e:
         f2:b1:a0:37:97:00:76:36:11:c0:07:a4:03:2c:1c:bd:5c:53:
         a0:9a:b3:1e:86:a5:19:3f:0b:34:05:e2:e4:ff:ab:f5:5e:f6:
         97:4b:c6:b8:96:42:58:03:d9:00:ba:fb:28:d1:13:7e:c5:81:
         b6:ff:6c:8c:92:46:55:ee:2b:0c:99:a9:8f:38:83:b0:9b:33:
         f0:ff:be:76:14:0f:63:a2:df:e9:43:60:05:01:21:66:3a:1b:
         26:67:33:76:3d:8b:f5:19:ec:2a:24:e4:b5:c7:ae:92:11:65:
         b3:13:c9:e2:0c:45:d8:80:03:a6:6f:af:06:f7:ad:79:26:de:
         4c:c0:6f:e7:23:73:fd:dc:36:29:25:ce:16:74:2e:de:ed:60:
         61:e6:97:ed:27:48:b8:96:fd:00:2a:ef:a5:96:22:f0:e9:88:
         0e:a1:79:fd:b4:87:7f:64:ab:5e:99:a2:70:c5:74:c5:f8:07:
         68:4e:77:7c:31:41:c1:ff:2e:cb:19:da:71:2a:ef:18:2d:c0:
         4a:d6:aa:4c:4a:f6:41:17:52:d4:99:f8:33:27:5a:f8:6e:0f:
         26:b8:58:95:32:e2:28:24:17:e2:5f:96:a1:19:81:4b:8a:0c:
         37:d1:ef:79:67:e8:69:da:b7:cb:f4:11:f6:9d:44:85:ae:12:
         b1:04:61:9c:20:8f:e9:ca:ef:42:54:aa:d8:11:20:21:ba:39:
         df:3b:38:88:f2:b9:86:89:91:ae:83:f1:80:85:07:2b:a5:d6:
         2a:c6:ce:ea:43:db:dc:f2:84:5e:69:65:bf:e4:9b:65:1e:40:
         46:22:3e:f8:54:96:7c:4b:86:3d:e1:1b:3e:5e:dd:16:55:ee:
         30:06:0a:9a:ba:e7:4b:bf:56:08:53:e7:d9:72:6e:8d:25:da:
         e7:c5:9e:c7:13:1c:98:8d:76:e9:0d:c7:b2:86:e7:ab:a0:62:
         39:4e:2f:ac:b3:de:63:6a:3e:05:8a:55:92:95:ad:fe:4d:0b:
         b8:b6:4a:24:03:6a:e6:4a:13:3e:49:24:ce:05:9d:44:53:85:
         07:17:d3:89:b9:ba:73:d6:53:5f:36:c3:34:38:71:db:06:7a:
         9a:f8:9c:39:68:69:96:f5
-----BEGIN CERTIFICATE-----
MIIFeTCCA2GgAwIBAgIQAyXVqaXXHqWo1txUD8VplTANBgkqhkiG9w0BAQsFADAm
MSQwIgYDVQQDDBtFYXN5LVJTQSBNYW50aWRzIEV4YW1wbGUgQ0EwHhcNMjIwODAx
MjIzODQ2WhcNMzIwMzAxMjIzODQ2WjAWMRQwEgYDVQQDDAtteXRsc2NsaWVudDCC
AiIwDQYJKoZIhvcNAQEBBQADggIPADCCAgoCggIBAMcaXmSm+pN/SZ4zasONyWVJ
DScdurgDoLt6w7Te45LELMh+QEWzU79bHAxAEzKhoyZBUh6vSTHkhUuaNHQvgwIQ
HdiJj1gaFbT7UTNZ2MaH41eiCwNVuPHQU0P4Psh2Ni5B35JXTnSnFJW8dFQdV3wU
yjAH+bReH5XS0d9PXPjzJbM/zVb1TISuvSBV0WzKwI8Y6FywMi6Iq2vMSGrwQr7J
1sFf7TqvIuZBqb+d6MOnAonOKb0/W0lO3NTvZwpZ6xPc+74SKVIGoMWhsieeib4W
RKXvv25n7rDBnlA+JxgiKSCHNm2sythzPA8aFlAJ39mCqBUq0r/Kqc5+TuCKJNsF
Iz9kPJoodUt1KNq2r9sNZcfGKWwcV7c/x5nKw2qKT+JxgV6OIP51JUgjiEOhiUVy
LTBA/AVfAERhHtaOFdGR8ySxXBgYgaSIp/J7dr4jr9tkt0PjJxQOMKxpIybStxef
S/YNcJrGRfZ6H6N51EDtTikL620E+MUzFPH6/O6OiXaJz93Qc8g45vZ+oxTs+upA
/OOgEt8GrupOaOGOHs3x9uGGKD3u4G1OqzUt0rvOJ9YJWcG5326BlvMBrgbjJMvZ
RXvDbuSXtATv+j/LhMtvpdjQ/CKZ+ysJYAzEqhzP7pAeALKVC2QWq+XmI3iWuXnY
0YLxP5hSWVi1pEluSzUHAgMBAAGjgbIwga8wCQYDVR0TBAIwADAdBgNVHQ4EFgQU
Dzp0+RCMP3nOnqGMy3VOuIgt2MYwYQYDVR0jBFowWIAUcV5AXkWtv9g1i3zZMi/d
NeoF2DWhKqQoMCYxJDAiBgNVBAMMG0Vhc3ktUlNBIE1hbnRpZHMgRXhhbXBsZSBD
QYIURQNWwW2OGBVzb/ihgxxVS5j7GB0wEwYDVR0lBAwwCgYIKwYBBQUHAwIwCwYD
VR0PBAQDAgeAMA0GCSqGSIb3DQEBCwUAA4ICAQCbmcZWY/+ywgCXaB8BnSdoWsgt
i/ZdV2h2N56YVMsGXgnkuN+6jWvnJ17fye5wIaA72ORjdqR4YCNKoQSmU1IiTztV
XcwePCRHKPrzDYmFFr0ztDWSpGeOQI7ysaA3lwB2NhHAB6QDLBy9XFOgmrMehqUZ
Pws0BeLk/6v1XvaXS8a4lkJYA9kAuvso0RN+xYG2/2yMkkZV7isMmamPOIOwmzPw
/752FA9jot/pQ2AFASFmOhsmZzN2PYv1GewqJOS1x66SEWWzE8niDEXYgAOmb68G
9615Jt5MwG/nI3P93DYpJc4WdC7e7WBh5pftJ0i4lv0AKu+lliLw6YgOoXn9tId/
ZKtemaJwxXTF+AdoTnd8MUHB/y7LGdpxKu8YLcBK1qpMSvZBF1LUmfgzJ1r4bg8m
uFiVMuIoJBfiX5ahGYFLigw30e95Z+hp2rfL9BH2nUSFrhKxBGGcII/pyu9CVKrY
ESAhujnfOziI8rmGiZGug/GAhQcrpdYqxs7qQ9vc8oReaWW/5JtlHkBGIj74VJZ8
S4Y94Rs+Xt0WVe4wBgqauudLv1YIU+fZcm6NJdrnxZ7HExyYjXbpDceyhueroGI5
Ti+ss95jaj4FilWSla3+TQu4tkokA2rmShM+SSTOBZ1EU4UHF9OJubpz1lNfNsM0
OHHbBnqa+Jw5aGmW9Q==
-----END CERTIFICATE-----
